; Function Attrs: mustprogress nounwind uwtable
define dso_local void @_ZN24btMultiBodyDynamicsWorldD0Ev(ptr noundef nonnull align 8 dereferenceable(848) initializes((0, 8)) %0) unnamed_addr #7 align 2 personality ptr @__gxx_personality_v0 {
  tail call void @_ZN24btMultiBodyDynamicsWorldD2Ev(ptr noundef nonnull align 8 dereferenceable(848) %0) #19
  invoke void @_Z21btAlignedFreeInternalPv(ptr noundef nonnull %0)
          to label %_ZN23btDiscreteDynamicsWorlddlEPv.exit unwind label %2

2:                                                ; preds = %1
  %3 = landingpad { ptr, i32 }
          catch ptr null
  %4 = extractvalue { ptr, i32 } %3, 0
  tail call void @__clang_call_terminate(ptr %4) #21
  unreachable

_ZN23btDiscreteDynamicsWorlddlEPv.exit:           ; preds = %1
  ret void
}